Certificate:
    Data:
        Version: 3 (0x2)
        Serial Number: 4128 (0x1020)
        Signature Algorithm: sha256WithRSAEncryption
        Issuer: C=BD, ST=syl, L=syl, O=sust, OU=cse, CN=webserverlab.com/emailAddress=tanvirtareq@gmail.com
        Validity
            Not Before: Jun  3 00:27:51 2022 GMT
            Not After : Jun  3 00:27:51 2023 GMT
        Subject: C=BD, ST=syl, O=sust, OU=cse, CN=webserverlab.com/emailAddress=tanvirtareq@gmail.com
        Subject Public Key Info:
            Public Key Algorithm: rsaEncryption
                Public-Key: (2048 bit)
                Modulus:
                    00:cf:44:56:47:7e:d1:46:42:e2:39:51:4c:a9:30:
                    ed:f7:83:df:a5:1b:a8:51:1d:0c:47:98:59:71:20:
                    29:b9:0d:af:47:62:83:ea:9a:8d:81:0c:5d:b3:35:
                    07:45:25:73:ac:e0:bb:c1:eb:6c:9e:02:73:62:5c:
                    88:1f:6f:31:fd:66:a2:59:32:a1:0e:87:ed:95:e1:
                    12:e4:87:36:c1:8d:b0:e4:55:e4:2e:1d:ab:4c:28:
                    f1:71:ca:e6:f7:05:78:e9:b0:9a:54:d9:68:18:fc:
                    9a:8e:06:98:4a:62:fd:98:3c:5c:de:bb:b6:d2:05:
                    e5:ec:ac:08:75:da:8a:e7:8f:a2:f3:c3:b3:4a:8d:
                    b6:c7:f5:72:2b:1e:c9:44:99:a5:64:60:11:96:29:
                    b9:ac:39:77:43:0c:2c:51:47:8c:8d:a7:42:c7:df:
                    10:7a:39:4d:a6:86:e7:f7:0e:b6:00:28:66:54:27:
                    21:d4:69:ca:43:59:37:f3:af:37:39:cd:36:66:38:
                    c1:8f:9c:e1:82:8b:a1:51:2a:c4:fc:18:6e:ec:8a:
                    31:d4:0f:76:f2:c6:d6:5f:d9:dc:a9:5c:c9:81:e7:
                    f2:70:0b:3f:e4:14:1c:0a:72:9c:58:fd:59:39:61:
                    e5:73:71:d4:a0:0f:bb:b6:02:e3:60:e1:0c:2d:cc:
                    63:99
                Exponent: 65537 (0x10001)
        X509v3 extensions:
            X509v3 Basic Constraints: 
                CA:FALSE
            X509v3 Subject Key Identifier: 
                B7:34:F4:FE:72:07:DA:FE:12:3A:CF:27:21:CF:B1:9E:29:E1:31:A1
            X509v3 Authority Key Identifier: 
                A7:B2:0F:48:81:7A:94:B8:F6:5B:4F:D3:BF:F9:F9:FE:54:BF:96:2A
    Signature Algorithm: sha256WithRSAEncryption
    Signature Value:
        54:2d:d8:50:4c:f5:6e:c4:54:90:0f:73:9b:2d:b9:58:9a:4d:
        a0:d6:40:cb:8c:02:15:83:33:21:71:0b:bb:3e:bf:18:6b:b4:
        1c:31:8b:02:8a:71:ce:fd:50:e9:81:e0:46:b9:48:e4:98:fd:
        bb:38:f0:df:2f:8c:8b:bd:b2:ad:c8:9a:a3:12:3b:20:11:af:
        34:3b:53:8f:e5:71:e7:45:54:ad:2b:52:d8:77:58:74:74:ef:
        5b:3c:d4:ed:59:09:d8:7a:7d:22:d9:32:9f:12:c8:e9:f5:f1:
        c4:d6:d0:ff:78:25:a3:c6:98:8d:1f:af:07:db:61:52:b6:fb:
        29:d7:36:0f:34:8b:18:05:d3:d5:6c:a3:31:42:83:0a:c9:f2:
        b4:22:a1:c0:01:fd:40:77:44:9d:4a:9f:7f:1f:b7:fd:15:b3:
        35:af:91:fc:d5:f6:75:05:69:f0:5b:6b:60:5f:8d:a5:3e:71:
        a4:55:8d:65:11:3e:1a:76:41:47:0b:d4:da:6e:d7:12:b5:a0:
        10:dd:bd:72:07:59:b2:7e:fd:37:96:57:81:4f:f2:15:03:9b:
        fa:c2:ef:40:9b:25:0c:74:7e:a6:76:4a:73:d8:87:04:d6:e1:
        a6:e6:ea:04:1b:c4:45:1c:f4:6f:d6:77:9a:22:e8:b8:75:88:
        87:dc:53:d7
-----BEGIN CERTIFICATE-----
MIIDyjCCArKgAwIBAgICECAwDQYJKoZIhvcNAQELBQAwgYcxCzAJBgNVBAYTAkJE
MQwwCgYDVQQIDANzeWwxDDAKBgNVBAcMA3N5bDENMAsGA1UECgwEc3VzdDEMMAoG
A1UECwwDY3NlMRkwFwYDVQQDDBB3ZWJzZXJ2ZXJsYWIuY29tMSQwIgYJKoZIhvcN
AQkBFhV0YW52aXJ0YXJlcUBnbWFpbC5jb20wHhcNMjIwNjAzMDAyNzUxWhcNMjMw
NjAzMDAyNzUxWjB5MQswCQYDVQQGEwJCRDEMMAoGA1UECAwDc3lsMQ0wCwYDVQQK
DARzdXN0MQwwCgYDVQQLDANjc2UxGTAXBgNVBAMMEHdlYnNlcnZlcmxhYi5jb20x
JDAiBgkqhkiG9w0BCQEWFXRhbnZpcnRhcmVxQGdtYWlsLmNvbTCCASIwDQYJKoZI
hvcNAQEBBQADggEPADCCAQoCggEBAM9EVkd+0UZC4jlRTKkw7feD36UbqFEdDEeY
WXEgKbkNr0dig+qajYEMXbM1B0Ulc6zgu8HrbJ4Cc2JciB9vMf1molkyoQ6H7ZXh
EuSHNsGNsORV5C4dq0wo8XHK5vcFeOmwmlTZaBj8mo4GmEpi/Zg8XN67ttIF5eys
CHXaiuePovPDs0qNtsf1ciseyUSZpWRgEZYpuaw5d0MMLFFHjI2nQsffEHo5TaaG
5/cOtgAoZlQnIdRpykNZN/OvNznNNmY4wY+c4YKLoVEqxPwYbuyKMdQPdvLG1l/Z
3KlcyYHn8nALP+QUHApynFj9WTlh5XNx1KAPu7YC42DhDC3MY5kCAwEAAaNNMEsw
CQYDVR0TBAIwADAdBgNVHQ4EFgQUtzT0/nIH2v4SOs8nIc+xninhMaEwHwYDVR0j
BBgwFoAUp7IPSIF6lLj2W0/Tv/n5/lS/liowDQYJKoZIhvcNAQELBQADggEBAFQt
2FBM9W7EVJAPc5stuViaTaDWQMuMAhWDMyFxC7s+vxhrtBwxiwKKcc79UOmB4Ea5
SOSY/bs48N8vjIu9sq3ImqMSOyARrzQ7U4/lcedFVK0rUth3WHR071s81O1ZCdh6
fSLZMp8SyOn18cTW0P94JaPGmI0frwfbYVK2+ynXNg80ixgF09VsozFCgwrJ8rQi
ocAB/UB3RJ1Kn38ft/0VszWvkfzV9nUFafBba2BfjaU+caRVjWURPhp2QUcL1Npu
1xK1oBDdvXIHWbJ+/TeWV4FP8hUDm/rC70CbJQx0fqZ2SnPYhwTW4abm6gQbxEUc
9G/Wd5oi6Lh1iIfcU9c=
-----END CERTIFICATE-----
