-----BEGIN ENCRYPTED PRIVATE KEY-----
MIIFHDBOBgkqhkiG9w0BBQ0wQTApBgkqhkiG9w0BBQwwHAQIdTCicTiTn+ICAggA
MAwGCCqGSIb3DQIJBQAwFAYIKoZIhvcNAwcECBLSIm9ec3hABIIEyK8Re5jhyeDQ
l95MpyNAgAqiApGZv3abfMKC02UIABpZJLua2jYOl35XBjrm4Fqh3aCHiUzHOpg2
allqFG3YC7XITB0GF8x2f97wwM2vmCQWyGcRudXMzODFNAER4A4DryAyKhrOUQVR
Avd3BnOnAn1NlaFFakeXLof/kmHi+vjWU9Tlrx+ujd49j8L/tItv4ZKv1gxqgBIj
zSBcavHhApyiR5alnpfMGJ68fJl7Qs2xICQKaviQ7mkyXLHry0aF/iw1t8pPtoL1
+CanpVxdxrtq8xjjnETNtTTUTqznfb7asFL05DTT32oc19YdasOewlSm1MkybMp9
Q7LaLLaHZJP4BlatCmlIAf7UwztiAb8A+7XGBZYJQjrN0zjx8miKZTiM9FU8o9Dy
GFgXBIBbS2P8ebR9NXpa7u8ip+C5Iz5Xb006fB1ktNg0bimp3Z0eFfUSMrhE9Ibw
qZ33kYIvDrnW2sbd9Pc7N9CjiuKZztli+RCbhc7rOOkin+fFGKrVMLS7ZD+TNWtD
o+ive643tmlDI+kYo2SiVPbZ78kNayB9gAenIpQjeC+Jy0b4y9Yz4TszPE2tjXys
v24j3uQhkipYg4LrHfMIT2ZomdWuoYyPmI+h22QvPwFn+ELcnGkyu/882AtZqdPw
dcIJQYVULFAwF7fjpy5XC0gyzgIN/q/NhXGqfYIeX2VoYaDnWSa3Wi1JywOsWdpW
irICLXbuNPLmHl7T0atqVbqpWeeMKXZ6wNqgJxJHTZzgxeSTfuTZG0FRoQ8MkP3z
pvd5MJZRxeedCcwtEDWe3Y8w3S+P0mmZwijdVVneKMMavq9L4NVmMtX1KevBnS/P
mPBxr+TeCcpg4/lychMiZYBLfIhoQmy88TSB4zgiWojX3V+inmxutIjMNKysPb8x
oqEFZmEYv8xRcqU48QT2XBE0YRWYELpQ0fkU5OHk2flDjvDqWhQRlvMdJkCw1MO8
MpUTkkudC2Gt7hg0Yu3ZHmODSqR6A5BaPKKtWkB1FqeuHHTafKZk7wh+fTYe5jJA
HMT4ToyIAw3d2u5P7tuZtCiqjmDgUgf3Ry5gLZoYGz/kvLE0L1fQY7vJ20fkSPZL
ILfHjfM449+UEn1n7j/4O7dZtH4JPz1rPh0Qmb5HwBcb/HXBojOHwQKgV5t30MZy
UEnHfhlkB1FXJfQ09cD+YuE+ZABrZWIgH6YqW3747iNchX+0nt2jskoYaVeGIe5H
Z155pn+tmNKRoLeFv5ZlidVHCnrpox4HbTtRXGFZM+rvrahc6ClQ1JvdA3VwZU61
zFow1DeyeDhb67ToC92eZRUQoPfNaabi7+ZZ4Drhwwvw+JWqi9RSe1NC/IE8nUxU
Jpectexqyb9pUqgtEzUUY6OcQJ2UQLFxfJb8mAffK/iosPTU2+9vAOfaifIg5+fI
nm4nVZaLELzbS3e4gr1Sb6GZ2KUgmNiuTLv9q9OYDNBWPVMP1Ch8jDsUJeWLgivP
ZLjeKLTv4TCsXFgpsPAyt3epyuRXAR2TO+iJ1APtviFNKhXAMc7k1/o1kgj7xCKO
/o2Lg/UkPNAumbjWlSUyJC3BPguSz/7yO94/GGsQoWgVuLcIvt5UoqKc4pmI+2Lq
nRt2x1n6XzrZiA5OPDuxzQ==
-----END ENCRYPTED PRIVATE KEY-----
Certificate:
    Data:
        Version: 3 (0x2)
        Serial Number: 4097 (0x1001)
        Signature Algorithm: sha256WithRSAEncryption
        Issuer: C=BD, ST=Syl, L=Syl, O=sust, OU=cse, CN=example.com/emailAddress=kimuapon@gmail.com
        Validity
            Not Before: Jun  2 23:22:29 2022 GMT
            Not After : Jun  2 23:22:29 2023 GMT
        Subject: C=BD, ST=Syl, O=sust, OU=cse, CN=example.com/emailAddress=kimuapon@gmail.com
        Subject Public Key Info:
            Public Key Algorithm: rsaEncryption
                Public-Key: (2048 bit)
                Modulus:
                    00:a2:2a:09:2e:c3:9e:4b:64:f8:5f:23:1b:cc:8d:
                    42:0b:55:5e:1c:b2:2b:5c:fa:72:f4:8f:33:5b:64:
                    7e:38:93:85:5d:2b:de:59:3f:92:45:92:bf:35:58:
                    90:f6:42:07:a9:81:ce:92:03:4f:d3:a6:4e:f6:42:
                    7a:37:8b:2c:fa:8f:f4:c9:14:8a:f1:9a:73:be:18:
                    00:f8:4f:f9:b5:1d:87:a4:6f:19:d0:33:13:df:b9:
                    4e:83:d3:90:90:d1:6f:dc:a2:95:ee:49:c6:72:93:
                    46:b8:1c:2e:75:88:9b:0a:6b:2a:a1:d0:60:29:96:
                    3d:c7:df:59:0a:55:43:74:f3:ce:ff:ca:48:3f:69:
                    3a:73:4a:48:0d:d1:df:d9:5a:d3:2c:6c:89:9d:c5:
                    8c:5d:c5:92:48:67:57:5e:fc:89:8a:0a:d7:32:c8:
                    fd:6e:5f:76:f1:ff:9f:60:fe:2d:c2:68:88:20:51:
                    61:4c:76:11:84:38:55:e5:9e:a5:ea:bc:f9:2f:9e:
                    6f:94:4d:b6:1f:ef:cd:bd:57:98:bb:e5:f1:5e:32:
                    ad:78:34:ba:5a:d6:98:d4:8e:74:5d:9a:c6:69:ef:
                    1f:02:8f:7e:b3:d8:ae:bf:66:90:4c:dc:70:e6:37:
                    ea:92:5e:32:4d:bd:ca:78:01:e4:58:af:3b:a6:dd:
                    1c:b1
                Exponent: 65537 (0x10001)
        X509v3 extensions:
            X509v3 Basic Constraints: 
                CA:FALSE
            X509v3 Subject Key Identifier: 
                E3:6C:AC:12:9A:D0:C6:7B:22:10:BB:2E:48:5C:6C:16:1D:41:C5:C6
            X509v3 Authority Key Identifier: 
                45:AB:8F:DC:67:04:7F:83:8D:CD:5F:2C:04:72:8E:2F:C2:33:E8:C7
    Signature Algorithm: sha256WithRSAEncryption
    Signature Value:
        56:35:8f:e6:e9:a7:5d:c5:e0:c5:cf:dc:1a:8e:ce:4c:f5:db:
        78:79:22:9f:c7:29:e7:02:8c:e5:09:69:d8:46:c9:16:6e:d4:
        6c:c4:19:b2:99:36:0b:c5:61:be:92:f9:df:8b:b4:d8:10:93:
        45:99:d1:32:46:65:b5:83:38:e4:5b:71:e0:e6:9b:88:5d:6b:
        bc:94:09:d0:99:fa:4f:e7:a9:fe:0d:ae:7c:57:88:b9:88:1f:
        24:f3:97:7c:f9:82:19:c6:0a:21:18:f9:f5:aa:62:4b:c4:22:
        67:87:3f:3c:2f:10:d3:4b:eb:a6:bb:94:eb:0f:13:5b:fa:ff:
        a4:08:51:20:81:cc:23:47:e3:e4:52:f2:ef:1e:90:ce:ac:2d:
        47:27:7d:1a:7b:ae:33:1c:39:af:23:33:c4:3b:63:85:3b:80:
        c0:73:ff:cc:57:97:7e:24:36:5f:b3:d0:3f:29:62:6d:73:81:
        bf:d2:07:ae:f1:a2:df:54:d5:87:f6:8d:e8:bb:76:df:de:fc:
        36:76:29:d3:35:cb:6f:4b:01:09:f3:8c:99:a5:52:8e:e6:46:
        59:15:0a:ec:d9:17:a5:f7:6d:aa:ae:21:7c:5e:66:d3:f5:a8:
        15:22:e9:b6:02:9f:67:e0:1b:9e:76:d0:24:9d:d8:1b:c3:fe:
        12:d0:07:3d
-----BEGIN CERTIFICATE-----
MIIDuTCCAqGgAwIBAgICEAEwDQYJKoZIhvcNAQELBQAwfzELMAkGA1UEBhMCQkQx
DDAKBgNVBAgMA1N5bDEMMAoGA1UEBwwDU3lsMQ0wCwYDVQQKDARzdXN0MQwwCgYD
VQQLDANjc2UxFDASBgNVBAMMC2V4YW1wbGUuY29tMSEwHwYJKoZIhvcNAQkBFhJr
aW11YXBvbkBnbWFpbC5jb20wHhcNMjIwNjAyMjMyMjI5WhcNMjMwNjAyMjMyMjI5
WjBxMQswCQYDVQQGEwJCRDEMMAoGA1UECAwDU3lsMQ0wCwYDVQQKDARzdXN0MQww
CgYDVQQLDANjc2UxFDASBgNVBAMMC2V4YW1wbGUuY29tMSEwHwYJKoZIhvcNAQkB
FhJraW11YXBvbkBnbWFpbC5jb20wggEiMA0GCSqGSIb3DQEBAQUAA4IBDwAwggEK
AoIBAQCiKgkuw55LZPhfIxvMjUILVV4csitc+nL0jzNbZH44k4VdK95ZP5JFkr81
WJD2Qgepgc6SA0/Tpk72Qno3iyz6j/TJFIrxmnO+GAD4T/m1HYekbxnQMxPfuU6D
05CQ0W/copXuScZyk0a4HC51iJsKayqh0GAplj3H31kKVUN0887/ykg/aTpzSkgN
0d/ZWtMsbImdxYxdxZJIZ1de/ImKCtcyyP1uX3bx/59g/i3CaIggUWFMdhGEOFXl
nqXqvPkvnm+UTbYf7829V5i75fFeMq14NLpa1pjUjnRdmsZp7x8Cj36z2K6/ZpBM
3HDmN+qSXjJNvcp4AeRYrzum3RyxAgMBAAGjTTBLMAkGA1UdEwQCMAAwHQYDVR0O
BBYEFONsrBKa0MZ7IhC7LkhcbBYdQcXGMB8GA1UdIwQYMBaAFEWrj9xnBH+Djc1f
LARyji/CM+jHMA0GCSqGSIb3DQEBCwUAA4IBAQBWNY/m6addxeDFz9wajs5M9dt4
eSKfxynnAozlCWnYRskWbtRsxBmymTYLxWG+kvnfi7TYEJNFmdEyRmW1gzjkW3Hg
5puIXWu8lAnQmfpP56n+Da58V4i5iB8k85d8+YIZxgohGPn1qmJLxCJnhz88LxDT
S+umu5TrDxNb+v+kCFEggcwjR+PkUvLvHpDOrC1HJ30ae64zHDmvIzPEO2OFO4DA
c//MV5d+JDZfs9A/KWJtc4G/0geu8aLfVNWH9o3ou3bf3vw2dinTNctvSwEJ84yZ
pVKO5kZZFQrs2Rel922qriF8XmbT9agVIum2Ap9n4BuedtAkndgbw/4S0Ac9
-----END CERTIFICATE-----
