-----BEGIN ENCRYPTED PRIVATE KEY-----
MIIFHDBOBgkqhkiG9w0BBQ0wQTApBgkqhkiG9w0BBQwwHAQIZZrS2c/xDTYCAggA
MAwGCCqGSIb3DQIJBQAwFAYIKoZIhvcNAwcECHFxwDTrzQ99BIIEyHJcm8crXm9L
MoghIsux+ZqZ94jLoHr+e/3kMjKKY72SB0xuo9V2YOurBtVpYCkEAq2T3KaMIpA6
fTnZYLViIfsN/RLAZM6eEu/Uivm6cmnCJRLd09XNB1JqhHyonxpJJnvnm6XxYPB+
p8nXaWIKnSqFetLn5oLOggonlCk4q82cNP0X6YjCgNn8ktNHyWxISn9qQjTmzOvs
T1O5m4J6xMSSSUlEvvaKWuLj/sYjyhfMUSh1z6+gwy4xT7hVFG+Q4UgWPFndoifu
WovhlKNa+qn3Wjs5zfS4bu1a9IlLSoAps4d1L1XRgqr8GR1Rmwiw9ty8LJ+Ir8qi
k6PRYPXs1wNagfDH6O4Tb6VruLbWdXGB2ULTHYBgfagjEIJx50seq63PNb2+h+Tu
38BaCfluwA1nZ2fvailh/mpbXfzxPoZFIFFCwtF59bpvuRYN0T9Zpar7/rd4vLk9
Fh9e2Rm3c2ZyASw7mA3YOtiqUKRNnIadyr+pagkKpFoi+JIq6hHTKqbf2lobOMHK
2vPSsOMqhwbkqqN4aUCWx1tPHzAwH+0peaXBgKw9gs3in1TTuW025J6qrvqFjrKZ
hRRtdKZSisYehuVMrfpSndzaPCKPIwOCpS/BViFefX6yZl39BXi9IDaBRexwu8+x
X0FRzSwSvnH51AAvy/42lz6vqGFfiqcUE521Sm4/rhH8WAepr9lEFCZ73b37d1te
Ph15GbrJSCTgM7d3+7b3d4l2IFlTpyk+93Ld1zBxTuMCw9Y8R28aFjxPb3GymO8e
s2AaPlbTlOBnqqpRxLXNVA0j2SW2wXxzfPdFPRBAZuZRkwU7rAGQjK8qQL/dF1hA
gEb5d4TpHC6tFgp/F3saA7uToxlGQXHgi3ifsirDKIOmHiiGNG+yZLGbJxftukoe
iToxK/1Tv77JBVsn2VKYUZ3r+pkLxu6fSrk4oTFf0IDJblZueFdSjJsXQkB+m+H4
4LoY2UrhypL7T+CNtWzkXkYhRGcYbg/lhKnvIDrlmtBjtlgFZ0c+8nkj0Z2dwE79
/Q9vT1FhJR4jAPP9Uf/8Fv62M+br3cnT8/1lXfbBaoNA6soEcNfD6fR8POZBcqgO
8f6acl29pCNxMxYrRZPpeGheOl0LB3jXYLxe6E5PtBAjoai1DzPOw+Kkdn9dPVSp
Ww2EpubfGyXqsonzdLEqi5yhxPRellNF/Aa9Oiqdhb/XXTwsG5lTlsc6zxOL8kyZ
GBFC9nqvLL7GNC3N9ry45lhO+U+x1p62jizzQIw+8zEsSb0byKpPuoudL/uUwDia
Hexv+e8qAtNAnhGGPfz4M/IOTlDpsrJhfknIBGPLVvWsnBVbKSbBPLDHjoZv0yGO
J6MOLiI5p4OjQfq06dusUIj3vsJ/9Bsot1JqV0trphkJQJAzwuvozEps1/0YnMb0
1+62b9FJpfvxO7k4Hq6UW0TjK/todvUgDm4Yb4xA9T5NlGVdubgOzXXfQCurXqqG
YiL0RKIDUlPWy6i2eu2dCNWo1mpL62T0/a3UCG1IXaRYS7s9p6gQ4Tf6isJCtiKm
WQqhe2RBWLYIQAqdFEvVHJ+8sv6z/NL72RN2vF0rbJELGQuGkBA1CJLt/XF8+oAU
tGS8gYWmKpBsI37lpX0DBQ==
-----END ENCRYPTED PRIVATE KEY-----
Certificate:
    Data:
        Version: 3 (0x2)
        Serial Number: 4096 (0x1000)
        Signature Algorithm: sha256WithRSAEncryption
        Issuer: C=BD, ST=Sylhet, L=Sylhet, O=example.com, OU=cse, CN=magic/emailAddress=kimuapon@gmail.com
        Validity
            Not Before: Jun  2 20:23:14 2022 GMT
            Not After : Jun  2 20:23:14 2023 GMT
        Subject: C=BD, ST=Sylhet, O=example.com, OU=cse, CN=magic/emailAddress=kimuapon@gmail.com
        Subject Public Key Info:
            Public Key Algorithm: rsaEncryption
                Public-Key: (2048 bit)
                Modulus:
                    00:b1:45:b8:33:50:de:17:0d:cf:b7:a4:75:f9:28:
                    21:f6:59:78:68:15:8b:a8:00:b9:3d:58:eb:30:69:
                    d1:c7:f3:ae:da:b5:49:48:27:02:01:23:71:28:87:
                    92:79:78:6c:9f:e8:14:8d:ff:d9:03:e4:b1:d3:e3:
                    33:a7:5d:5a:28:97:28:af:31:3f:19:e1:5b:b9:58:
                    9f:f4:c4:d9:f5:7a:fb:9f:65:64:77:77:ba:ae:79:
                    ad:5b:cc:cb:01:1b:f2:cf:9c:fa:40:a3:f6:d5:a6:
                    88:4c:0e:33:1a:23:10:90:48:82:fd:63:67:b5:c0:
                    56:e1:1e:00:d2:dc:df:cd:e1:6b:dc:5c:c0:65:a9:
                    58:8b:0a:39:b7:5d:c6:d2:4d:06:35:46:8d:e7:76:
                    1f:af:e0:42:24:94:ef:eb:40:9b:98:b9:5e:42:1a:
                    56:0f:4d:c4:62:c9:2a:81:d2:49:8c:25:a6:d7:9b:
                    3d:5e:54:63:88:da:9e:05:60:95:8d:66:b3:0d:c3:
                    bd:7e:50:fe:48:a9:4a:ad:42:ed:7b:f6:9a:44:41:
                    4f:18:0f:96:cd:d8:2f:43:f4:12:60:8e:e6:13:9e:
                    9e:68:9e:d5:e0:8d:fe:96:20:e8:2f:9b:05:ec:d3:
                    88:7f:97:5f:37:0a:e6:1a:fa:66:15:bc:99:45:41:
                    f0:03
                Exponent: 65537 (0x10001)
        X509v3 extensions:
            X509v3 Basic Constraints: 
                CA:FALSE
            X509v3 Subject Key Identifier: 
                8E:E6:26:DC:D0:32:DF:33:F5:0C:48:44:C6:2E:E1:C4:8C:87:FF:81
            X509v3 Authority Key Identifier: 
                3E:23:73:0E:22:6D:EC:13:19:66:5B:A1:A9:B3:8B:2D:86:2C:DE:F8
    Signature Algorithm: sha256WithRSAEncryption
    Signature Value:
        4c:2a:14:8f:c8:6a:50:c0:60:05:32:f3:dd:22:24:d4:26:a6:
        d8:b4:49:21:88:07:04:9e:87:0c:f1:75:2f:db:51:b8:bc:bb:
        70:d2:7d:a6:78:65:7e:fe:d7:cf:9b:b0:f4:50:5c:d0:96:9e:
        d7:f6:4f:b3:ba:2e:2a:2c:35:6c:b2:de:08:4f:8e:7f:b7:4f:
        11:c8:5b:5b:45:2c:23:fb:78:30:b9:7a:f1:ba:41:e1:b0:ea:
        a2:d5:77:a0:7c:cb:b8:a9:5e:61:14:eb:e2:f3:73:d6:3c:1a:
        57:88:e0:f3:f3:55:20:9e:18:f3:7d:c3:99:7e:99:d5:7e:0c:
        ac:a1:57:8b:a4:3c:2c:25:b7:47:17:72:50:9c:0f:83:2e:ed:
        b0:18:fc:57:21:f3:12:3c:89:98:23:c9:78:16:7c:ec:d5:cf:
        1b:76:29:8b:da:35:cf:4a:58:f6:3e:fb:ae:4b:d1:2c:c1:10:
        63:97:a5:6d:cf:4a:0b:27:0a:a5:e8:62:23:29:46:94:be:d2:
        73:a8:28:0e:12:7c:a7:15:90:ad:91:4f:84:d5:c0:30:1b:c1:
        97:dd:1f:1c:3f:a4:20:43:e5:da:94:0c:ee:1e:66:3c:34:80:
        4c:a0:8e:24:e8:77:31:03:69:b3:6d:26:ee:d1:69:b3:91:31:
        03:73:dc:2e
-----BEGIN CERTIFICATE-----
MIIDxTCCAq2gAwIBAgICEAAwDQYJKoZIhvcNAQELBQAwgYYxCzAJBgNVBAYTAkJE
MQ8wDQYDVQQIDAZTeWxoZXQxDzANBgNVBAcMBlN5bGhldDEUMBIGA1UECgwLZXhh
bXBsZS5jb20xDDAKBgNVBAsMA2NzZTEOMAwGA1UEAwwFbWFnaWMxITAfBgkqhkiG
9w0BCQEWEmtpbXVhcG9uQGdtYWlsLmNvbTAeFw0yMjA2MDIyMDIzMTRaFw0yMzA2
MDIyMDIzMTRaMHUxCzAJBgNVBAYTAkJEMQ8wDQYDVQQIDAZTeWxoZXQxFDASBgNV
BAoMC2V4YW1wbGUuY29tMQwwCgYDVQQLDANjc2UxDjAMBgNVBAMMBW1hZ2ljMSEw
HwYJKoZIhvcNAQkBFhJraW11YXBvbkBnbWFpbC5jb20wggEiMA0GCSqGSIb3DQEB
AQUAA4IBDwAwggEKAoIBAQCxRbgzUN4XDc+3pHX5KCH2WXhoFYuoALk9WOswadHH
867atUlIJwIBI3Eoh5J5eGyf6BSN/9kD5LHT4zOnXVoolyivMT8Z4Vu5WJ/0xNn1
evufZWR3d7quea1bzMsBG/LPnPpAo/bVpohMDjMaIxCQSIL9Y2e1wFbhHgDS3N/N
4WvcXMBlqViLCjm3XcbSTQY1Ro3ndh+v4EIklO/rQJuYuV5CGlYPTcRiySqB0kmM
JabXmz1eVGOI2p4FYJWNZrMNw71+UP5IqUqtQu179ppEQU8YD5bN2C9D9BJgjuYT
np5ontXgjf6WIOgvmwXs04h/l183CuYa+mYVvJlFQfADAgMBAAGjTTBLMAkGA1Ud
EwQCMAAwHQYDVR0OBBYEFI7mJtzQMt8z9QxIRMYu4cSMh/+BMB8GA1UdIwQYMBaA
FD4jcw4ibewTGWZboamziy2GLN74MA0GCSqGSIb3DQEBCwUAA4IBAQBMKhSPyGpQ
wGAFMvPdIiTUJqbYtEkhiAcEnocM8XUv21G4vLtw0n2meGV+/tfPm7D0UFzQlp7X
9k+zui4qLDVsst4IT45/t08RyFtbRSwj+3gwuXrxukHhsOqi1XegfMu4qV5hFOvi
83PWPBpXiODz81UgnhjzfcOZfpnVfgysoVeLpDwsJbdHF3JQnA+DLu2wGPxXIfMS
PImYI8l4Fnzs1c8bdimL2jXPSlj2PvuuS9EswRBjl6Vtz0oLJwql6GIjKUaUvtJz
qCgOEnynFZCtkU+E1cAwG8GX3R8cP6QgQ+XalAzuHmY8NIBMoI4k6HcxA2mzbSbu
0WmzkTEDc9wu
-----END CERTIFICATE-----
