-----BEGIN ENCRYPTED PRIVATE KEY-----
MIIC1DBOBgkqhkiG9w0BBQ0wQTApBgkqhkiG9w0BBQwwHAQI3q5kRmD0+VcCAggA
MAwGCCqGSIb3DQIJBQAwFAYIKoZIhvcNAwcECOk4EcRGbCH0BIICgA31RbQoqf4M
xxOzfW9oCdXa3F4NYe3RPjIPtVQlbL6Sfk2oZ/nnsb7YSjAcR82H8hE9xBbgJjvB
Cv+9nENEf1WE+MxMQmMEi3Kcl73bcu9UYqr8lsETP8fe27cKubYm5KKFp0xqgEvE
mkle/IX5vSkzcLhTS8YA9IkCXSyXJAJ28yjo1k2RCqq1KnyzMtkBn5Bwo6ffMxIc
FHLnup2K1kPa4AYklF/BVMlZy1kXFP9SkrPkEpwMFA1ug0RIkj/0u5lRjAT/CjGN
LXgnt9QylEsOSgUeAaO+dpL05E0XyATh1CMSr1jBpt3WUUFohtQyv0Kyo13n51ge
J7mxpjZTu8VLoeoVKv6/xA4yks8e3CF0d7iNcjs+wxI5uc3qWkmcwzoBcBojYRdl
CdU759iZ84IEMobfX3bhLgQOpu7wpWoLWo2GLZKwzJMfNdGXQaK6DSOap4saMOIm
faT72HThAadEkYl8+svBCRs/6kNg6BOeRw0cNHJZAr+69g0y+hb4tivWqa8QVd9c
4MWJwo35GosDx1mmkH4KKdEwM7MYFVklpe1M/TgkVntTDC82UavhVIlbqlwKFXSQ
SQdzKXC9LIW4C+Q0rfIbEAT0+VjsyRYqa2Vvja5uHyr7fJrghJX53egtE8c8ZnHz
ObyJs4fd57Rd7ijNz8MnmQnV+LTszi6S9yL0IwukQKibNK57MW6A82TlGHhcmSHt
EdhvO0ze59vXwihFfCjqAUKOoHCjD6eGAIV1vnYSubeoLdzEwTTLDU/eM9l5UxNJ
QwTvGQS0xTA+x96fZXkb3qDA1E6zCTdsyqn6M9Af9+IJS02YqL69/doQLer5CBpb
/HMtVlIA3n8=
-----END ENCRYPTED PRIVATE KEY-----
Certificate:
    Data:
        Version: 3 (0x2)
        Serial Number: 4096 (0x1000)
        Signature Algorithm: sha256WithRSAEncryption
        Issuer: C=BD, ST=SY, L=Sy, O=SUST, OU=CSE, CN=magic/emailAddress=kimuapon@gmail.com
        Validity
            Not Before: Jun  2 18:32:07 2022 GMT
            Not After : Jun  2 18:32:07 2023 GMT
        Subject: C=BD, ST=SY, O=SUST, OU=CSE, CN=magic/emailAddress=kimuapon@gmail.com
        Subject Public Key Info:
            Public Key Algorithm: rsaEncryption
                Public-Key: (1024 bit)
                Modulus:
                    00:b6:51:d2:2a:8d:ea:d0:d6:d6:45:11:16:18:9b:
                    c0:33:c5:f4:0d:e8:ea:0a:86:e4:87:88:1d:7a:94:
                    f7:95:f8:74:81:80:d4:90:c8:b2:73:c0:82:13:80:
                    ab:1e:81:58:ba:07:a7:f1:fe:56:b5:eb:68:f6:92:
                    41:bf:ba:7d:af:37:bb:20:c8:96:fd:91:07:9f:c3:
                    a8:03:3e:a1:96:9f:19:d5:a9:ec:a6:7e:d0:b0:ca:
                    ef:2a:f4:12:38:b2:0c:b5:f6:87:5c:19:6e:75:cb:
                    a1:d4:35:64:84:ee:03:46:27:fe:ae:0b:1b:33:90:
                    4a:ff:c6:90:a4:2d:23:81:55
                Exponent: 65537 (0x10001)
        X509v3 extensions:
            X509v3 Basic Constraints: 
                CA:FALSE
            X509v3 Subject Key Identifier: 
                23:0E:F7:E7:62:A6:B8:AE:F4:C7:7F:07:6B:D8:2B:28:AD:7B:6E:2C
            X509v3 Authority Key Identifier: 
                CE:77:9F:6A:D3:81:BD:27:71:80:1E:27:91:98:5C:FB:C8:77:E5:09
    Signature Algorithm: sha256WithRSAEncryption
    Signature Value:
        8e:72:51:79:ff:9d:c3:8b:78:a6:ea:35:aa:b4:2c:64:64:a4:
        84:fe:fe:51:d8:0a:67:5f:27:68:ef:40:83:c9:7c:1c:3c:2e:
        ec:33:8e:d2:18:dc:72:23:80:fb:fe:9d:91:2a:b2:85:8f:ae:
        d5:e8:6f:19:01:98:f2:c3:2f:26:92:c1:65:94:5c:60:10:2e:
        c7:e6:90:8e:e2:03:ad:b7:ef:a5:05:75:7f:91:9b:66:cf:11:
        32:1d:19:1a:b9:4a:ed:5a:39:f1:ea:5c:31:ac:6b:d1:07:4f:
        76:50:ce:eb:c9:27:a6:38:18:a8:a1:e9:1d:78:dc:d5:08:72:
        f0:f1:70:b3:dd:4a:e4:3a:60:7b:45:45:04:70:4d:fb:04:37:
        b7:45:37:0e:df:28:90:e5:1e:f1:cc:f6:ea:a0:6a:30:9a:36:
        38:7b:5b:e5:e7:3c:2b:48:15:eb:92:12:b3:8e:d8:54:63:8d:
        12:0f:d5:b3:11:b7:cd:52:be:4e:1a:d9:08:d9:4e:56:4e:41:
        8a:b6:99:67:e1:f6:56:b4:fa:91:67:7d:54:44:fb:59:9a:11:
        5d:79:19:e5:84:d9:52:ea:cb:74:0b:ed:b0:04:31:9e:f3:79:
        23:d9:ce:8a:f8:c9:d6:49:c2:31:3a:b3:e0:fb:ac:94:05:f4:
        93:57:5c:1a
-----BEGIN CERTIFICATE-----
MIIDJjCCAg6gAwIBAgICEAAwDQYJKoZIhvcNAQELBQAwdzELMAkGA1UEBhMCQkQx
CzAJBgNVBAgMAlNZMQswCQYDVQQHDAJTeTENMAsGA1UECgwEU1VTVDEMMAoGA1UE
CwwDQ1NFMQ4wDAYDVQQDDAVtYWdpYzEhMB8GCSqGSIb3DQEJARYSa2ltdWFwb25A
Z21haWwuY29tMB4XDTIyMDYwMjE4MzIwN1oXDTIzMDYwMjE4MzIwN1owajELMAkG
A1UEBhMCQkQxCzAJBgNVBAgMAlNZMQ0wCwYDVQQKDARTVVNUMQwwCgYDVQQLDAND
U0UxDjAMBgNVBAMMBW1hZ2ljMSEwHwYJKoZIhvcNAQkBFhJraW11YXBvbkBnbWFp
bC5jb20wgZ8wDQYJKoZIhvcNAQEBBQADgY0AMIGJAoGBALZR0iqN6tDW1kURFhib
wDPF9A3o6gqG5IeIHXqU95X4dIGA1JDIsnPAghOAqx6BWLoHp/H+VrXraPaSQb+6
fa83uyDIlv2RB5/DqAM+oZafGdWp7KZ+0LDK7yr0EjiyDLX2h1wZbnXLodQ1ZITu
A0Yn/q4LGzOQSv/GkKQtI4FVAgMBAAGjTTBLMAkGA1UdEwQCMAAwHQYDVR0OBBYE
FCMO9+dipriu9Md/B2vYKyite24sMB8GA1UdIwQYMBaAFM53n2rTgb0ncYAeJ5GY
XPvId+UJMA0GCSqGSIb3DQEBCwUAA4IBAQCOclF5/53Di3im6jWqtCxkZKSE/v5R
2ApnXydo70CDyXwcPC7sM47SGNxyI4D7/p2RKrKFj67V6G8ZAZjywy8mksFllFxg
EC7H5pCO4gOtt++lBXV/kZtmzxEyHRkauUrtWjnx6lwxrGvRB092UM7rySemOBio
oekdeNzVCHLw8XCz3UrkOmB7RUUEcE37BDe3RTcO3yiQ5R7xzPbqoGowmjY4e1vl
5zwrSBXrkhKzjthUY40SD9WzEbfNUr5OGtkI2U5WTkGKtpln4fZWtPqRZ31URPtZ
mhFdeRnlhNlS6st0C+2wBDGe83kj2c6K+MnWScIxOrPg+6yUBfSTV1wa
-----END CERTIFICATE-----
